target datalayout = "e-m:e-p270:32:32-p271:32:32-p272:64:64-i64:64-i128:128-f80:128-n8:16:32:64-S128"
target triple = "x86_64-pc-linux-gnu"

%struct.H5O_ainfo_t = type { i8, i8, i32, i64, i64, i64, i64 }

@H5O_init_g = external global i8, align 1
@H5_libterm_g = external global i8, align 1
@.str.1 = private unnamed_addr constant [102 x i8] c"generated/home/dtcxzyw/WorkSpace/Projects/compilers/llvm-opt-benchmark/bench/hdf5/hdf5/src/H5Oainfo.c\00", align 1
@H5E_OHDR_g = external global i64, align 8
@H5E_RESOURCE_g = external global i64, align 8
@H5E_NOSPACE_g = external global i64, align 8
@.str.4 = private unnamed_addr constant [25 x i8] c"memory allocation failed\00", align 1
@H5_H5O_ainfo_t_reg_free_list = internal global { i8, [3 x i8], i32, i32, [4 x i8], ptr, i64, ptr } { i8 0, [3 x i8] zeroinitializer, i32 0, i32 0, [4 x i8] zeroinitializer, ptr @.str.6, i64 40, ptr null }, align 8
@__func__.H5O__ainfo_copy_file = private unnamed_addr constant [21 x i8] c"H5O__ainfo_copy_file\00", align 1
@H5E_CANTINIT_g = external global i64, align 8
@.str.9 = private unnamed_addr constant [46 x i8] c"unable to create dense storage for attributes\00", align 1

; Function Attrs: nounwind uwtable
define internal ptr @H5O__ainfo_copy_file(ptr noundef %0, ptr noundef %1, ptr noundef %2, ptr noundef %3, ptr noundef %4, ptr noundef %5, ptr noundef %6) #0 {
  %8 = alloca ptr, align 8
  %9 = alloca ptr, align 8
  %10 = alloca ptr, align 8
  %11 = alloca ptr, align 8
  %12 = alloca ptr, align 8
  %13 = alloca ptr, align 8
  %14 = alloca ptr, align 8
  %15 = alloca ptr, align 8
  %16 = alloca ptr, align 8
  %17 = alloca ptr, align 8
  %18 = alloca ptr, align 8
  %19 = alloca i8, align 1
  %20 = alloca i64, align 8
  %21 = alloca i32, align 4
  store ptr %0, ptr %9, align 8, !tbaa !3
  store ptr %1, ptr %10, align 8, !tbaa !20
  store ptr %2, ptr %11, align 8, !tbaa !3
  store ptr %3, ptr %12, align 8, !tbaa !35
  store ptr %4, ptr %13, align 8, !tbaa !12
  store ptr %5, ptr %14, align 8, !tbaa !37
  store ptr %6, ptr %15, align 8, !tbaa !20
  call void @llvm.lifetime.start.p0(i64 8, ptr %16) #6
  %22 = load ptr, ptr %10, align 8, !tbaa !20
  store ptr %22, ptr %16, align 8, !tbaa !18
  call void @llvm.lifetime.start.p0(i64 8, ptr %17) #6
  store ptr null, ptr %17, align 8, !tbaa !18
  call void @llvm.lifetime.start.p0(i64 8, ptr %18) #6
  store ptr null, ptr %18, align 8, !tbaa !20
  call void @llvm.lifetime.start.p0(i64 1, ptr %19) #6
  store i8 0, ptr %19, align 1, !tbaa !21
  %23 = load i8, ptr @H5O_init_g, align 1, !tbaa !21, !range !23, !noundef !24
  %24 = trunc i8 %23 to i1
  br i1 %24, label %29, label %25

25:                                               ; preds = %7
  %26 = load i8, ptr @H5_libterm_g, align 1, !tbaa !21, !range !23, !noundef !24
  %27 = trunc i8 %26 to i1
  %28 = xor i1 %27, true
  br label %29

29:                                               ; preds = %25, %7
  %30 = phi i1 [ true, %7 ], [ %28, %25 ]
  %31 = xor i1 %30, true
  %32 = xor i1 %31, true
  %33 = zext i1 %32 to i32
  %34 = sext i32 %33 to i64
  %35 = call i64 @llvm.expect.i64(i64 %34, i64 1)
  %36 = icmp ne i64 %35, 0
  br i1 %36, label %37, label %108

37:                                               ; preds = %29
  %38 = call noalias ptr @H5FL_reg_malloc(ptr noundef @H5_H5O_ainfo_t_reg_free_list)
  store ptr %38, ptr %17, align 8, !tbaa !18
  %39 = icmp eq ptr null, %38
  br i1 %39, label %40, label %59

40:                                               ; preds = %37
  br label %41

41:                                               ; preds = %40
  br label %42

42:                                               ; preds = %41
  br label %43

43:                                               ; preds = %42
  %44 = load i64, ptr @H5E_RESOURCE_g, align 8, !tbaa !14
  %45 = load i64, ptr @H5E_NOSPACE_g, align 8, !tbaa !14
  %46 = call i32 (ptr, ptr, i32, i64, i64, ptr, ...) @H5E_printf_stack(ptr noundef @.str.1, ptr noundef @__func__.H5O__ainfo_copy_file, i32 noundef 409, i64 noundef %44, i64 noundef %45, ptr noundef @.str.4)
  br label %47

47:                                               ; preds = %43
  br label %48

48:                                               ; preds = %47
  store i8 1, ptr %19, align 1, !tbaa !21
  %49 = load i8, ptr %19, align 1, !tbaa !21, !range !23, !noundef !24
  %50 = trunc i8 %49 to i1
  %51 = zext i1 %50 to i8
  store i8 %51, ptr %19, align 1, !tbaa !21
  br label %52

52:                                               ; preds = %48
  br label %53

53:                                               ; preds = %52
  br label %54

54:                                               ; preds = %53
  store ptr null, ptr %18, align 8, !tbaa !20
  br label %98

55:                                               ; No predecessors!
  br label %56

56:                                               ; preds = %55
  br label %57

57:                                               ; preds = %56
  br label %58

58:                                               ; preds = %57
  br label %59

59:                                               ; preds = %58, %37
  %60 = load ptr, ptr %17, align 8, !tbaa !18
  %61 = load ptr, ptr %16, align 8, !tbaa !18
  call void @llvm.memcpy.p0.p0.i64(ptr align 8 %60, ptr align 8 %61, i64 40, i1 false), !tbaa.struct !34
  %62 = load ptr, ptr %16, align 8, !tbaa !18
  %63 = getelementptr inbounds nuw %struct.H5O_ainfo_t, ptr %62, i32 0, i32 5
  %64 = load i64, ptr %63, align 8, !tbaa !32
  %65 = icmp ne i64 %64, -1
  br i1 %65, label %66, label %96

66:                                               ; preds = %59
  call void @llvm.lifetime.start.p0(i64 8, ptr %20) #6
  store i64 -1, ptr %20, align 8, !tbaa !14
  call void @H5AC_tag(i64 noundef 2, ptr noundef %20)
  %67 = load ptr, ptr %11, align 8, !tbaa !3
  %68 = load ptr, ptr %17, align 8, !tbaa !18
  %69 = call i32 @H5A__dense_create(ptr noundef %67, ptr noundef %68)
  %70 = icmp slt i32 %69, 0
  br i1 %70, label %71, label %91

71:                                               ; preds = %66
  br label %72

72:                                               ; preds = %71
  %73 = load i64, ptr %20, align 8, !tbaa !14
  call void @H5AC_tag(i64 noundef %73, ptr noundef null)
  br label %74

74:                                               ; preds = %72
  br label %75

75:                                               ; preds = %74
  %76 = load i64, ptr @H5E_OHDR_g, align 8, !tbaa !14
  %77 = load i64, ptr @H5E_CANTINIT_g, align 8, !tbaa !14
  %78 = call i32 (ptr, ptr, i32, i64, i64, ptr, ...) @H5E_printf_stack(ptr noundef @.str.1, ptr noundef @__func__.H5O__ainfo_copy_file, i32 noundef 421, i64 noundef %76, i64 noundef %77, ptr noundef @.str.9)
  br label %79

79:                                               ; preds = %75
  br label %80

80:                                               ; preds = %79
  store i8 1, ptr %19, align 1, !tbaa !21
  %81 = load i8, ptr %19, align 1, !tbaa !21, !range !23, !noundef !24
  %82 = trunc i8 %81 to i1
  %83 = zext i1 %82 to i8
  store i8 %83, ptr %19, align 1, !tbaa !21
  br label %84

84:                                               ; preds = %80
  br label %85

85:                                               ; preds = %84
  br label %86

86:                                               ; preds = %85
  store ptr null, ptr %18, align 8, !tbaa !20
  store i32 10, ptr %21, align 4
  br label %93

87:                                               ; No predecessors!
  br label %88

88:                                               ; preds = %87
  br label %89

89:                                               ; preds = %88
  br label %90

90:                                               ; preds = %89
  br label %91

91:                                               ; preds = %90, %66
  %92 = load i64, ptr %20, align 8, !tbaa !14
  call void @H5AC_tag(i64 noundef %92, ptr noundef null)
  store i32 0, ptr %21, align 4
  br label %93

93:                                               ; preds = %86, %91
  call void @llvm.lifetime.end.p0(i64 8, ptr %20) #6
  %94 = load i32, ptr %21, align 4
  switch i32 %94, label %110 [
    i32 0, label %95
    i32 10, label %98
  ]

95:                                               ; preds = %93
  br label %96

96:                                               ; preds = %95, %59
  %97 = load ptr, ptr %17, align 8, !tbaa !18
  store ptr %97, ptr %18, align 8, !tbaa !20
  br label %98

98:                                               ; preds = %96, %93, %54
  %99 = load ptr, ptr %18, align 8, !tbaa !20
  %100 = icmp ne ptr %99, null
  br i1 %100, label %107, label %101

101:                                              ; preds = %98
  %102 = load ptr, ptr %17, align 8, !tbaa !18
  %103 = icmp ne ptr %102, null
  br i1 %103, label %104, label %107

104:                                              ; preds = %101
  %105 = load ptr, ptr %17, align 8, !tbaa !18
  %106 = call ptr @H5FL_reg_free(ptr noundef @H5_H5O_ainfo_t_reg_free_list, ptr noundef %105)
  store ptr %106, ptr %17, align 8, !tbaa !18
  br label %107

107:                                              ; preds = %104, %101, %98
  br label %108

108:                                              ; preds = %107, %29
  %109 = load ptr, ptr %18, align 8, !tbaa !20
  store ptr %109, ptr %8, align 8
  store i32 1, ptr %21, align 4
  br label %110

110:                                              ; preds = %108, %93
  call void @llvm.lifetime.end.p0(i64 1, ptr %19) #6
  call void @llvm.lifetime.end.p0(i64 8, ptr %18) #6
  call void @llvm.lifetime.end.p0(i64 8, ptr %17) #6
  call void @llvm.lifetime.end.p0(i64 8, ptr %16) #6
  %111 = load ptr, ptr %8, align 8
  ret ptr %111
}